target datalayout = "e-m:e-p270:32:32-p271:32:32-p272:64:64-i64:64-i128:128-f80:128-n8:16:32:64-S128"
target triple = "x86_64-pc-linux-gnu"

@allow_customize = internal global i32 1, align 4
@malloc_impl = internal global ptr @CRYPTO_malloc, align 8
@realloc_impl = internal global ptr @CRYPTO_realloc, align 8
@free_impl = internal global ptr @CRYPTO_free, align 8

; Function Attrs: nounwind uwtable
define i32 @CRYPTO_set_mem_functions(ptr noundef %0, ptr noundef %1, ptr noundef %2) #0 {
  %4 = alloca i32, align 4
  %5 = alloca ptr, align 8
  %6 = alloca ptr, align 8
  %7 = alloca ptr, align 8
  store ptr %0, ptr %5, align 8, !tbaa !3
  store ptr %1, ptr %6, align 8, !tbaa !3
  store ptr %2, ptr %7, align 8, !tbaa !3
  %8 = load i32, ptr @allow_customize, align 4, !tbaa !7
  %9 = icmp ne i32 %8, 0
  br i1 %9, label %11, label %10

10:                                               ; preds = %3
  store i32 0, ptr %4, align 4
  br label %27

11:                                               ; preds = %3
  %12 = load ptr, ptr %5, align 8, !tbaa !3
  %13 = icmp ne ptr %12, null
  br i1 %13, label %14, label %16

14:                                               ; preds = %11
  %15 = load ptr, ptr %5, align 8, !tbaa !3
  store ptr %15, ptr @malloc_impl, align 8, !tbaa !3
  br label %16

16:                                               ; preds = %14, %11
  %17 = load ptr, ptr %6, align 8, !tbaa !3
  %18 = icmp ne ptr %17, null
  br i1 %18, label %19, label %21

19:                                               ; preds = %16
  %20 = load ptr, ptr %6, align 8, !tbaa !3
  store ptr %20, ptr @realloc_impl, align 8, !tbaa !3
  br label %21

21:                                               ; preds = %19, %16
  %22 = load ptr, ptr %7, align 8, !tbaa !3
  %23 = icmp ne ptr %22, null
  br i1 %23, label %24, label %26

24:                                               ; preds = %21
  %25 = load ptr, ptr %7, align 8, !tbaa !3
  store ptr %25, ptr @free_impl, align 8, !tbaa !3
  br label %26

26:                                               ; preds = %24, %21
  store i32 1, ptr %4, align 4
  br label %27

27:                                               ; preds = %26, %10
  %28 = load i32, ptr %4, align 4
  ret i32 %28
}