; Function Attrs: mustprogress nofree norecurse nosync nounwind willreturn memory(readwrite, argmem: none, inaccessiblemem: none) uwtable
define range(i32 0, 2) i32 @CRYPTO_set_mem_functions(ptr noundef %0, ptr noundef %1, ptr noundef %2) local_unnamed_addr #0 {
  %.b = load i1, ptr @allow_customize, align 4
  br i1 %.b, label %10, label %4

4:                                                ; preds = %3
  %.not = icmp eq ptr %0, null
  br i1 %.not, label %6, label %5

5:                                                ; preds = %4
  store ptr %0, ptr @malloc_impl, align 8, !tbaa !3
  br label %6

6:                                                ; preds = %5, %4
  %.not9 = icmp eq ptr %1, null
  br i1 %.not9, label %8, label %7

7:                                                ; preds = %6
  store ptr %1, ptr @realloc_impl, align 8, !tbaa !3
  br label %8

8:                                                ; preds = %7, %6
  %.not10 = icmp eq ptr %2, null
  br i1 %.not10, label %10, label %9

9:                                                ; preds = %8
  store ptr %2, ptr @free_impl, align 8, !tbaa !3
  br label %10

10:                                               ; preds = %8, %9, %3
  %.0 = phi i32 [ 0, %3 ], [ 1, %9 ], [ 1, %8 ]
  ret i32 %.0
}